; Function Attrs: nofree norecurse nosync nounwind memory(read, argmem: readwrite, inaccessiblemem: none) uwtable
define internal void @yuv2p012lX_LE_c(ptr noundef readonly captures(none) %0, i32 noundef %1, ptr noundef readonly captures(none) %2, ptr noundef writeonly captures(none) %3, i32 noundef %4, ptr readnone captures(none) %5, i32 %6) #3 {
  %8 = icmp sgt i32 %4, 0
  br i1 %8, label %.lr.ph36.i, label %yuv2p01xlX_c.exit

.lr.ph36.i:                                       ; preds = %7
  %9 = icmp sgt i32 %1, 0
  br i1 %9, label %.lr.ph.us.us.preheader.i, label %.lr.ph36.split.us.split.i

.lr.ph.us.us.preheader.i:                         ; preds = %.lr.ph36.i
  %wide.trip.count73.i = zext nneg i32 %4 to i64
  %wide.trip.count68.i = zext nneg i32 %1 to i64
  br label %.lr.ph.us.us.i

.lr.ph.us.us.i:                                   ; preds = %._crit_edge.us.us.i, %.lr.ph.us.us.preheader.i
  %indvars.iv70.i = phi i64 [ 0, %.lr.ph.us.us.preheader.i ], [ %indvars.iv.next71.i, %._crit_edge.us.us.i ]
  br label %10

10:                                               ; preds = %10, %.lr.ph.us.us.i
  %indvars.iv65.i = phi i64 [ 0, %.lr.ph.us.us.i ], [ %indvars.iv.next66.i, %10 ]
  %.033.us.us.i = phi i32 [ 16384, %.lr.ph.us.us.i ], [ %20, %10 ]
  %11 = getelementptr inbounds nuw ptr, ptr %2, i64 %indvars.iv65.i
  %12 = load ptr, ptr %11, align 8, !tbaa !43
  %13 = getelementptr inbounds nuw i16, ptr %12, i64 %indvars.iv70.i
  %14 = load i16, ptr %13, align 2, !tbaa !39
  %15 = sext i16 %14 to i32
  %16 = getelementptr inbounds nuw i16, ptr %0, i64 %indvars.iv65.i
  %17 = load i16, ptr %16, align 2, !tbaa !39
  %18 = sext i16 %17 to i32
  %19 = mul nsw i32 %18, %15
  %20 = add nsw i32 %19, %.033.us.us.i
  %indvars.iv.next66.i = add nuw nsw i64 %indvars.iv65.i, 1
  %exitcond69.not.i = icmp eq i64 %indvars.iv.next66.i, %wide.trip.count68.i
  br i1 %exitcond69.not.i, label %._crit_edge.us.us.i, label %10, !llvm.loop !44

._crit_edge.us.us.i:                              ; preds = %10
  %21 = ashr i32 %20, 15
  %22 = tail call i32 @llvm.smax.i32(i32 %21, i32 0)
  %23 = tail call i32 @llvm.umin.i32(i32 %22, i32 4095)
  %.0.i.us.us.i.tr = trunc nuw nsw i32 %23 to i16
  %24 = shl nuw i16 %.0.i.us.us.i.tr, 4
  %25 = getelementptr inbounds nuw i16, ptr %3, i64 %indvars.iv70.i
  store i16 %24, ptr %25, align 1, !tbaa !41
  %indvars.iv.next71.i = add nuw nsw i64 %indvars.iv70.i, 1
  %exitcond74.not.i = icmp eq i64 %indvars.iv.next71.i, %wide.trip.count73.i
  br i1 %exitcond74.not.i, label %yuv2p01xlX_c.exit, label %.lr.ph.us.us.i, !llvm.loop !45

.lr.ph36.split.us.split.i:                        ; preds = %.lr.ph36.i
  %26 = shl nuw i32 %4, 1
  %27 = zext i32 %26 to i64
  tail call void @llvm.memset.p0.i64(ptr align 1 %3, i8 0, i64 %27, i1 false), !tbaa !41
  br label %yuv2p01xlX_c.exit

yuv2p01xlX_c.exit:                                ; preds = %._crit_edge.us.us.i, %.lr.ph36.split.us.split.i, %7
  ret void
}